(dp0
S'IDs'
p1
(lp2
I0
aI1
aI2
aI3
aI4
aI5
aI6
aI7
aI8
aI9
aI10
aI11
aI12
aI13
aI14
aI15
aI16
aI17
aI18
aI19
aI20
aI21
aI22
aI23
aI24
aI25
aI26
aI27
aI28
aI29
aI30
aI31
aI32
aI33
aI34
aI35
aI36
aI37
asS'Names'
p3
(lp4
S'Aaron_Eckhart'
p5
aS'Aaron_Guiel'
p6
aS'Aaron_Peirsol'
p7
aS'Aaron_Peirsol'
p8
aS'Aaron_Peirsol'
p9
aS'Aaron_Peirsol'
p10
aS'Nghia'
p11
aS'Nghia'
p12
aS'Nghia'
p13
aS'Nghia'
p14
aS'Nghia'
p15
aS'Nghia'
p16
aS'Nghia'
p17
aS'Nghia'
p18
aS'Nghia'
p19
aS'Nghia'
p20
aS'Nghia'
p21
aS'Nghia'
p22
aS'Nghia'
p23
aS'Nghia'
p24
aS'Nghia'
p25
aS'Nghia'
p26
aS'Nghia'
p27
aS'Nghia'
p28
aS'Nghia'
p29
aS'Nghia'
p30
aS'Nghia'
p31
aS'Phu Bui'
p32
aS'Phu Bui'
p33
aS'Phu Bui'
p34
aS'Phu Bui'
p35
aS'Phu Bui'
p36
aS'Phu Bui'
p37
aS'Phu Bui'
p38
aS'Phu Bui'
p39
aS'Phu Bui'
p40
aS'Phu Bui'
p41
aS'Phu Bui'
p42
as.